target datalayout = "e-m:e-p270:32:32-p271:32:32-p272:64:64-i64:64-i128:128-f80:128-n8:16:32:64-S128"
target triple = "x86_64-unknown-linux-gnu"

%struct.iovec = type { ptr, i64 }
%struct.IOVectorSortElem = type { i32, ptr, ptr }

; Function Attrs: nounwind sspstrong uwtable
define internal i32 @sortelem_cmp_src_base(ptr noundef %a, ptr noundef %b) #0 {
entry:
  %retval = alloca i32, align 4
  %a.addr = alloca ptr, align 8
  %b.addr = alloca ptr, align 8
  %elem_a = alloca ptr, align 8
  %elem_b = alloca ptr, align 8
  store ptr %a, ptr %a.addr, align 8
  store ptr %b, ptr %b.addr, align 8
  %0 = load ptr, ptr %a.addr, align 8
  store ptr %0, ptr %elem_a, align 8
  %1 = load ptr, ptr %b.addr, align 8
  store ptr %1, ptr %elem_b, align 8
  %2 = load ptr, ptr %elem_a, align 8
  %src_iov = getelementptr inbounds %struct.IOVectorSortElem, ptr %2, i32 0, i32 1
  %3 = load ptr, ptr %src_iov, align 8
  %iov_base = getelementptr inbounds %struct.iovec, ptr %3, i32 0, i32 0
  %4 = load ptr, ptr %iov_base, align 8
  %5 = load ptr, ptr %elem_b, align 8
  %src_iov1 = getelementptr inbounds %struct.IOVectorSortElem, ptr %5, i32 0, i32 1
  %6 = load ptr, ptr %src_iov1, align 8
  %iov_base2 = getelementptr inbounds %struct.iovec, ptr %6, i32 0, i32 0
  %7 = load ptr, ptr %iov_base2, align 8
  %cmp = icmp ult ptr %4, %7
  br i1 %cmp, label %if.then, label %if.else

if.then:                                          ; preds = %entry
  store i32 -1, ptr %retval, align 4
  br label %return

if.else:                                          ; preds = %entry
  %8 = load ptr, ptr %elem_a, align 8
  %src_iov3 = getelementptr inbounds %struct.IOVectorSortElem, ptr %8, i32 0, i32 1
  %9 = load ptr, ptr %src_iov3, align 8
  %iov_base4 = getelementptr inbounds %struct.iovec, ptr %9, i32 0, i32 0
  %10 = load ptr, ptr %iov_base4, align 8
  %11 = load ptr, ptr %elem_b, align 8
  %src_iov5 = getelementptr inbounds %struct.IOVectorSortElem, ptr %11, i32 0, i32 1
  %12 = load ptr, ptr %src_iov5, align 8
  %iov_base6 = getelementptr inbounds %struct.iovec, ptr %12, i32 0, i32 0
  %13 = load ptr, ptr %iov_base6, align 8
  %cmp7 = icmp ugt ptr %10, %13
  br i1 %cmp7, label %if.then8, label %if.else9

if.then8:                                         ; preds = %if.else
  store i32 1, ptr %retval, align 4
  br label %return

if.else9:                                         ; preds = %if.else
  store i32 0, ptr %retval, align 4
  br label %return

return:                                           ; preds = %if.else9, %if.then8, %if.then
  %14 = load i32, ptr %retval, align 4
  ret i32 %14
}