; Function Attrs: mustprogress nofree norecurse nosync nounwind sspstrong willreturn memory(read, inaccessiblemem: none) uwtable
define internal range(i32 -1, 2) i32 @sortelem_cmp_src_base(ptr noundef readonly captures(none) %a, ptr noundef readonly captures(none) %b) #11 {
entry:
  %src_iov = getelementptr inbounds nuw i8, ptr %a, i64 8
  %0 = load ptr, ptr %src_iov, align 8
  %1 = load ptr, ptr %0, align 8
  %src_iov1 = getelementptr inbounds nuw i8, ptr %b, i64 8
  %2 = load ptr, ptr %src_iov1, align 8
  %3 = load ptr, ptr %2, align 8
  %cmp = icmp ult ptr %1, %3
  %cmp7 = icmp ugt ptr %1, %3
  %. = zext i1 %cmp7 to i32
  %retval.0 = select i1 %cmp, i32 -1, i32 %.
  ret i32 %retval.0
}